target datalayout = "e-m:e-p270:32:32-p271:32:32-p272:64:64-i64:64-i128:128-f80:128-n8:16:32:64-S128"
target triple = "x86_64-pc-linux-gnu"

%union.LWLockPadded = type { %struct.LWLock, [112 x i8] }
%struct.LWLock = type { i16, %struct.pg_atomic_uint32, %struct.proclist_head }
%struct.pg_atomic_uint32 = type { i32 }
%struct.proclist_head = type { i32, i32 }
%struct.SERIALIZABLEXIDTAG = type { i32 }
%struct.SERIALIZABLEXID = type { %struct.SERIALIZABLEXIDTAG, ptr }

@MainLWLockArray = external global ptr, align 8
@SerializableXidHash = internal global ptr null, align 8
@MySerializableXact = internal global ptr null, align 8
@MyXactDidWrite = internal global i8 0, align 1

; Function Attrs: nounwind uwtable
define dso_local void @PredicateLockTwoPhaseFinish(i32 noundef %0, i1 noundef zeroext %1) #0 {
  %3 = alloca i32, align 4
  %4 = alloca i8, align 1
  %5 = alloca ptr, align 8
  %6 = alloca %struct.SERIALIZABLEXIDTAG, align 4
  %7 = alloca i32, align 4
  store i32 %0, ptr %3, align 4
  %8 = zext i1 %1 to i8
  store i8 %8, ptr %4, align 1
  call void @llvm.lifetime.start.p0(i64 8, ptr %5) #10
  call void @llvm.lifetime.start.p0(i64 4, ptr %6) #10
  %9 = load i32, ptr %3, align 4
  %10 = getelementptr inbounds nuw %struct.SERIALIZABLEXIDTAG, ptr %6, i32 0, i32 0
  store i32 %9, ptr %10, align 4
  %11 = load ptr, ptr @MainLWLockArray, align 8
  %12 = getelementptr inbounds %union.LWLockPadded, ptr %11, i64 28
  %13 = call zeroext i1 @LWLockAcquire(ptr noundef %12, i32 noundef 1)
  %14 = load ptr, ptr @SerializableXidHash, align 8
  %15 = call ptr @hash_search(ptr noundef %14, ptr noundef %6, i32 noundef 0, ptr noundef null)
  store ptr %15, ptr %5, align 8
  %16 = load ptr, ptr @MainLWLockArray, align 8
  %17 = getelementptr inbounds %union.LWLockPadded, ptr %16, i64 28
  call void @LWLockRelease(ptr noundef %17)
  %18 = load ptr, ptr %5, align 8
  %19 = icmp eq ptr %18, null
  br i1 %19, label %20, label %21

20:                                               ; preds = %2
  store i32 1, ptr %7, align 4
  br label %27

21:                                               ; preds = %2
  %22 = load ptr, ptr %5, align 8
  %23 = getelementptr inbounds nuw %struct.SERIALIZABLEXID, ptr %22, i32 0, i32 1
  %24 = load ptr, ptr %23, align 8
  store ptr %24, ptr @MySerializableXact, align 8
  store i8 1, ptr @MyXactDidWrite, align 1
  %25 = load i8, ptr %4, align 1, !range !4, !noundef !5
  %26 = trunc i8 %25 to i1
  call void @ReleasePredicateLocks(i1 noundef zeroext %26, i1 noundef zeroext false)
  store i32 0, ptr %7, align 4
  br label %27

27:                                               ; preds = %21, %20
  call void @llvm.lifetime.end.p0(i64 4, ptr %6) #10
  call void @llvm.lifetime.end.p0(i64 8, ptr %5) #10
  %28 = load i32, ptr %7, align 4
  switch i32 %28, label %30 [
    i32 0, label %29
    i32 1, label %29
  ]

29:                                               ; preds = %27, %27
  ret void

30:                                               ; preds = %27
  unreachable
}