; Function Attrs: nounwind uwtable
define dso_local void @PredicateLockTwoPhaseFinish(i32 noundef %0, i1 noundef zeroext %1) local_unnamed_addr #0 {
  %3 = alloca %struct.SERIALIZABLEXIDTAG, align 4
  call void @llvm.lifetime.start.p0(i64 4, ptr nonnull %3) #12
  store i32 %0, ptr %3, align 4
  %4 = load ptr, ptr @MainLWLockArray, align 8
  %5 = getelementptr inbounds nuw i8, ptr %4, i64 3584
  %6 = tail call zeroext i1 @LWLockAcquire(ptr noundef nonnull %5, i32 noundef 1) #12
  %7 = load ptr, ptr @SerializableXidHash, align 8
  %8 = call ptr @hash_search(ptr noundef %7, ptr noundef nonnull %3, i32 noundef 0, ptr noundef null) #12
  %9 = load ptr, ptr @MainLWLockArray, align 8
  %10 = getelementptr inbounds nuw i8, ptr %9, i64 3584
  call void @LWLockRelease(ptr noundef nonnull %10) #12
  %11 = icmp eq ptr %8, null
  br i1 %11, label %15, label %12

12:                                               ; preds = %2
  %13 = getelementptr inbounds nuw i8, ptr %8, i64 8
  %14 = load ptr, ptr %13, align 8
  store ptr %14, ptr @MySerializableXact, align 8
  store i1 true, ptr @MyXactDidWrite, align 1
  call void @ReleasePredicateLocks(i1 noundef zeroext %1, i1 noundef zeroext false)
  br label %15

15:                                               ; preds = %2, %12
  call void @llvm.lifetime.end.p0(i64 4, ptr nonnull %3) #12
  ret void
}